; Function Attrs: mustprogress uwtable
define hidden noundef zeroext i1 @_ZN3sls7context9set_valueEP4exprS2_(ptr noundef nonnull readonly align 8 captures(none) dereferenceable(321) %0, ptr noundef %1, ptr noundef %2) local_unnamed_addr #4 align 2 {
  %4 = getelementptr inbounds nuw i8, ptr %0, i64 16
  %.val = load ptr, ptr %4, align 8, !tbaa !49
  %5 = icmp eq ptr %.val, null
  br i1 %5, label %"_Z6any_ofI17scoped_ptr_vectorIN3sls6pluginEEZNS1_7context9set_valueEP4exprS6_E3$_0EbRKT_RKT0_.exit", label %_ZNK17scoped_ptr_vectorIN3sls6pluginEE3endEv.exit.i

_ZNK17scoped_ptr_vectorIN3sls6pluginEE3endEv.exit.i: ; preds = %3
  %6 = getelementptr inbounds i8, ptr %.val, i64 -4
  %7 = load i32, ptr %6, align 4, !tbaa !58
  %8 = zext i32 %7 to i64
  %9 = getelementptr inbounds nuw ptr, ptr %.val, i64 %8
  %.not3.not.i = icmp eq i32 %7, 0
  br i1 %.not3.not.i, label %"_Z6any_ofI17scoped_ptr_vectorIN3sls6pluginEEZNS1_7context9set_valueEP4exprS6_E3$_0EbRKT_RKT0_.exit", label %.lr.ph.i

.lr.ph.i:                                         ; preds = %_ZNK17scoped_ptr_vectorIN3sls6pluginEE3endEv.exit.i, %"_ZZN3sls7context9set_valueEP4exprS2_ENK3$_0clIPNS_6pluginEEEDaT_.exit.thread.i"
  %.0134.i = phi ptr [ %15, %"_ZZN3sls7context9set_valueEP4exprS2_ENK3$_0clIPNS_6pluginEEEDaT_.exit.thread.i" ], [ %.val, %_ZNK17scoped_ptr_vectorIN3sls6pluginEE3endEv.exit.i ]
  %10 = load ptr, ptr %.0134.i, align 8, !tbaa !70
  %.not.i.i = icmp eq ptr %10, null
  br i1 %.not.i.i, label %"_ZZN3sls7context9set_valueEP4exprS2_ENK3$_0clIPNS_6pluginEEEDaT_.exit.thread.i", label %"_ZZN3sls7context9set_valueEP4exprS2_ENK3$_0clIPNS_6pluginEEEDaT_.exit.i"

"_ZZN3sls7context9set_valueEP4exprS2_ENK3$_0clIPNS_6pluginEEEDaT_.exit.i": ; preds = %.lr.ph.i
  %11 = load ptr, ptr %10, align 8, !tbaa !3
  %12 = getelementptr inbounds nuw i8, ptr %11, i64 136
  %13 = load ptr, ptr %12, align 8
  %14 = tail call noundef zeroext i1 %13(ptr noundef nonnull align 8 dereferenceable(28) %10, ptr noundef %1, ptr noundef %2)
  br i1 %14, label %"_Z6any_ofI17scoped_ptr_vectorIN3sls6pluginEEZNS1_7context9set_valueEP4exprS6_E3$_0EbRKT_RKT0_.exit", label %"_ZZN3sls7context9set_valueEP4exprS2_ENK3$_0clIPNS_6pluginEEEDaT_.exit.thread.i"

"_ZZN3sls7context9set_valueEP4exprS2_ENK3$_0clIPNS_6pluginEEEDaT_.exit.thread.i": ; preds = %"_ZZN3sls7context9set_valueEP4exprS2_ENK3$_0clIPNS_6pluginEEEDaT_.exit.i", %.lr.ph.i
  %15 = getelementptr inbounds nuw i8, ptr %.0134.i, i64 8
  %.not.not.i = icmp eq ptr %15, %9
  br i1 %.not.not.i, label %"_Z6any_ofI17scoped_ptr_vectorIN3sls6pluginEEZNS1_7context9set_valueEP4exprS6_E3$_0EbRKT_RKT0_.exit", label %.lr.ph.i

"_Z6any_ofI17scoped_ptr_vectorIN3sls6pluginEEZNS1_7context9set_valueEP4exprS6_E3$_0EbRKT_RKT0_.exit": ; preds = %"_ZZN3sls7context9set_valueEP4exprS2_ENK3$_0clIPNS_6pluginEEEDaT_.exit.i", %"_ZZN3sls7context9set_valueEP4exprS2_ENK3$_0clIPNS_6pluginEEEDaT_.exit.thread.i", %3, %_ZNK17scoped_ptr_vectorIN3sls6pluginEE3endEv.exit.i
  %.not.lcssa.i = phi i1 [ false, %_ZNK17scoped_ptr_vectorIN3sls6pluginEE3endEv.exit.i ], [ false, %3 ], [ true, %"_ZZN3sls7context9set_valueEP4exprS2_ENK3$_0clIPNS_6pluginEEEDaT_.exit.i" ], [ false, %"_ZZN3sls7context9set_valueEP4exprS2_ENK3$_0clIPNS_6pluginEEEDaT_.exit.thread.i" ]
  ret i1 %.not.lcssa.i
}